target datalayout = "e-m:e-p270:32:32-p271:32:32-p272:64:64-i64:64-i128:128-f80:128-n8:16:32:64-S128"
target triple = "x86_64-pc-linux-gnu"

%struct.mime_encoder = type { ptr, ptr, ptr }
%struct.curl_mimepart = type { ptr, ptr, i32, i32, ptr, ptr, ptr, ptr, ptr, ptr, ptr, ptr, ptr, ptr, ptr, i64, %struct.mime_state, ptr, %struct.mime_encoder_state, i64 }
%struct.mime_state = type { i32, ptr, i64 }
%struct.mime_encoder_state = type { i64, i64, i64, [256 x i8] }

; Function Attrs: nounwind uwtable
define dso_local i32 @curl_mime_encoder(ptr noundef %0, ptr noundef %1) #0 {
  %3 = alloca i32, align 4
  %4 = alloca ptr, align 8
  %5 = alloca ptr, align 8
  %6 = alloca i32, align 4
  %7 = alloca ptr, align 8
  %8 = alloca i32, align 4
  store ptr %0, ptr %4, align 8, !tbaa !4
  store ptr %1, ptr %5, align 8, !tbaa !49
  call void @llvm.lifetime.start.p0(i64 4, ptr %6) #8
  store i32 43, ptr %6, align 4, !tbaa !45
  call void @llvm.lifetime.start.p0(i64 8, ptr %7) #8
  %9 = load ptr, ptr %4, align 8, !tbaa !4
  %10 = icmp ne ptr %9, null
  br i1 %10, label %13, label %11

11:                                               ; preds = %2
  %12 = load i32, ptr %6, align 4, !tbaa !45
  store i32 %12, ptr %3, align 4
  store i32 1, ptr %8, align 4
  br label %42

13:                                               ; preds = %2
  %14 = load ptr, ptr %4, align 8, !tbaa !4
  %15 = getelementptr inbounds nuw %struct.curl_mimepart, ptr %14, i32 0, i32 17
  store ptr null, ptr %15, align 8, !tbaa !48
  %16 = load ptr, ptr %5, align 8, !tbaa !49
  %17 = icmp ne ptr %16, null
  br i1 %17, label %19, label %18

18:                                               ; preds = %13
  store i32 0, ptr %3, align 4
  store i32 1, ptr %8, align 4
  br label %42

19:                                               ; preds = %13
  store ptr @encoders, ptr %7, align 8, !tbaa !63
  br label %20

20:                                               ; preds = %37, %19
  %21 = load ptr, ptr %7, align 8, !tbaa !63
  %22 = getelementptr inbounds nuw %struct.mime_encoder, ptr %21, i32 0, i32 0
  %23 = load ptr, ptr %22, align 8, !tbaa !64
  %24 = icmp ne ptr %23, null
  br i1 %24, label %25, label %40

25:                                               ; preds = %20
  %26 = load ptr, ptr %5, align 8, !tbaa !49
  %27 = load ptr, ptr %7, align 8, !tbaa !63
  %28 = getelementptr inbounds nuw %struct.mime_encoder, ptr %27, i32 0, i32 0
  %29 = load ptr, ptr %28, align 8, !tbaa !64
  %30 = call i32 @curl_strequal(ptr noundef %26, ptr noundef %29)
  %31 = icmp ne i32 %30, 0
  br i1 %31, label %32, label %36

32:                                               ; preds = %25
  %33 = load ptr, ptr %7, align 8, !tbaa !63
  %34 = load ptr, ptr %4, align 8, !tbaa !4
  %35 = getelementptr inbounds nuw %struct.curl_mimepart, ptr %34, i32 0, i32 17
  store ptr %33, ptr %35, align 8, !tbaa !48
  store i32 0, ptr %6, align 4, !tbaa !45
  br label %36

36:                                               ; preds = %32, %25
  br label %37

37:                                               ; preds = %36
  %38 = load ptr, ptr %7, align 8, !tbaa !63
  %39 = getelementptr inbounds nuw %struct.mime_encoder, ptr %38, i32 1
  store ptr %39, ptr %7, align 8, !tbaa !63
  br label %20, !llvm.loop !66

40:                                               ; preds = %20
  %41 = load i32, ptr %6, align 4, !tbaa !45
  store i32 %41, ptr %3, align 4
  store i32 1, ptr %8, align 4
  br label %42

42:                                               ; preds = %40, %18, %11
  call void @llvm.lifetime.end.p0(i64 8, ptr %7) #8
  call void @llvm.lifetime.end.p0(i64 4, ptr %6) #8
  %43 = load i32, ptr %3, align 4
  ret i32 %43
}