; Function Attrs: nounwind uwtable
define dso_local range(i32 0, 44) i32 @curl_mime_encoder(ptr noundef writeonly %0, ptr noundef %1) local_unnamed_addr #0 {
  %.not = icmp eq ptr %0, null
  br i1 %.not, label %.loopexit, label %3

3:                                                ; preds = %2
  %4 = getelementptr inbounds nuw i8, ptr %0, i64 144
  store ptr null, ptr %4, align 8, !tbaa !47
  %.not16 = icmp eq ptr %1, null
  br i1 %.not16, label %.loopexit, label %.preheader

.preheader:                                       ; preds = %3, %8
  %5 = phi ptr [ %10, %8 ], [ @.str.35, %3 ]
  %.020 = phi ptr [ %9, %8 ], [ @encoders, %3 ]
  %.01119 = phi i32 [ %.1, %8 ], [ 43, %3 ]
  %6 = tail call i32 @curl_strequal(ptr noundef nonnull %1, ptr noundef nonnull %5) #18
  %.not18 = icmp eq i32 %6, 0
  br i1 %.not18, label %8, label %7

7:                                                ; preds = %.preheader
  store ptr %.020, ptr %4, align 8, !tbaa !47
  br label %8

8:                                                ; preds = %.preheader, %7
  %.1 = phi i32 [ 0, %7 ], [ %.01119, %.preheader ]
  %9 = getelementptr inbounds nuw i8, ptr %.020, i64 24
  %10 = load ptr, ptr %9, align 8, !tbaa !54
  %.not17 = icmp eq ptr %10, null
  br i1 %.not17, label %.loopexit, label %.preheader, !llvm.loop !56

.loopexit:                                        ; preds = %8, %3, %2
  %.012 = phi i32 [ 43, %2 ], [ 0, %3 ], [ %.1, %8 ]
  ret i32 %.012
}